target datalayout = "e-m:e-p270:32:32-p271:32:32-p272:64:64-i64:64-i128:128-f80:128-n8:16:32:64-S128"
target triple = "x86_64-pc-linux-gnu"

; Function Attrs: nounwind uwtable
define internal void @copy_base(ptr noundef %0, i64 noundef %1, ptr noundef %2, ptr noundef %3, ptr noundef %4, ptr noundef %5, ptr noundef %6, ptr noundef %7, ptr noundef %8) #0 {
  %10 = alloca ptr, align 8
  %11 = alloca i64, align 8
  %12 = alloca ptr, align 8
  %13 = alloca ptr, align 8
  %14 = alloca ptr, align 8
  %15 = alloca ptr, align 8
  %16 = alloca ptr, align 8
  %17 = alloca ptr, align 8
  %18 = alloca ptr, align 8
  %19 = alloca i64, align 8
  %20 = alloca ptr, align 8
  %21 = alloca i64, align 8
  %22 = alloca ptr, align 8
  %23 = alloca ptr, align 8
  store ptr %0, ptr %10, align 8, !tbaa !32
  store i64 %1, ptr %11, align 8, !tbaa !23
  store ptr %2, ptr %12, align 8, !tbaa !22
  store ptr %3, ptr %13, align 8, !tbaa !32
  store ptr %4, ptr %14, align 8, !tbaa !32
  store ptr %5, ptr %15, align 8, !tbaa !22
  store ptr %6, ptr %16, align 8, !tbaa !32
  store ptr %7, ptr %17, align 8, !tbaa !32
  store ptr %8, ptr %18, align 8, !tbaa !22
  %24 = load ptr, ptr %18, align 8, !tbaa !22
  %25 = icmp eq ptr %24, null
  br i1 %25, label %26, label %52

26:                                               ; preds = %9
  call void @llvm.lifetime.start.p0(i64 8, ptr %19) #9
  %27 = load ptr, ptr %10, align 8, !tbaa !32
  %28 = getelementptr i64, ptr %27, i64 0
  %29 = load i64, ptr %28, align 8, !tbaa !23
  %30 = load i64, ptr %11, align 8, !tbaa !23
  %31 = mul i64 %29, %30
  store i64 %31, ptr %19, align 8, !tbaa !23
  %32 = load ptr, ptr %12, align 8, !tbaa !22
  %33 = load i64, ptr %19, align 8, !tbaa !23
  %34 = getelementptr i8, ptr %32, i64 %33
  %35 = load ptr, ptr %15, align 8, !tbaa !22
  %36 = icmp ult ptr %34, %35
  br i1 %36, label %43, label %37

37:                                               ; preds = %26
  %38 = load ptr, ptr %15, align 8, !tbaa !22
  %39 = load i64, ptr %19, align 8, !tbaa !23
  %40 = getelementptr i8, ptr %38, i64 %39
  %41 = load ptr, ptr %12, align 8, !tbaa !22
  %42 = icmp ult ptr %40, %41
  br i1 %42, label %43, label %47

43:                                               ; preds = %37, %26
  %44 = load ptr, ptr %12, align 8, !tbaa !22
  %45 = load ptr, ptr %15, align 8, !tbaa !22
  %46 = load i64, ptr %19, align 8, !tbaa !23
  call void @llvm.memcpy.p0.p0.i64(ptr align 1 %44, ptr align 1 %45, i64 %46, i1 false)
  br label %51

47:                                               ; preds = %37
  %48 = load ptr, ptr %12, align 8, !tbaa !22
  %49 = load ptr, ptr %15, align 8, !tbaa !22
  %50 = load i64, ptr %19, align 8, !tbaa !23
  call void @llvm.memmove.p0.p0.i64(ptr align 1 %48, ptr align 1 %49, i64 %50, i1 false)
  br label %51

51:                                               ; preds = %47, %43
  call void @llvm.lifetime.end.p0(i64 8, ptr %19) #9
  br label %135

52:                                               ; preds = %9
  call void @llvm.lifetime.start.p0(i64 8, ptr %20) #9
  call void @llvm.lifetime.start.p0(i64 8, ptr %21) #9
  store i64 0, ptr %21, align 8, !tbaa !23
  %53 = load ptr, ptr %18, align 8, !tbaa !22
  store ptr %53, ptr %20, align 8, !tbaa !22
  br label %54

54:                                               ; preds = %82, %52
  %55 = load i64, ptr %21, align 8, !tbaa !23
  %56 = load ptr, ptr %10, align 8, !tbaa !32
  %57 = getelementptr i64, ptr %56, i64 0
  %58 = load i64, ptr %57, align 8, !tbaa !23
  %59 = icmp slt i64 %55, %58
  br i1 %59, label %60, label %93

60:                                               ; preds = %54
  call void @llvm.lifetime.start.p0(i64 8, ptr %22) #9
  %61 = load ptr, ptr %17, align 8, !tbaa !32
  %62 = icmp ne ptr %61, null
  br i1 %62, label %63, label %75

63:                                               ; preds = %60
  %64 = load ptr, ptr %17, align 8, !tbaa !32
  %65 = getelementptr i64, ptr %64, i64 0
  %66 = load i64, ptr %65, align 8, !tbaa !23
  %67 = icmp sge i64 %66, 0
  br i1 %67, label %68, label %75

68:                                               ; preds = %63
  %69 = load ptr, ptr %15, align 8, !tbaa !22
  %70 = load ptr, ptr %69, align 8, !tbaa !22
  %71 = load ptr, ptr %17, align 8, !tbaa !32
  %72 = getelementptr i64, ptr %71, i64 0
  %73 = load i64, ptr %72, align 8, !tbaa !23
  %74 = getelementptr i8, ptr %70, i64 %73
  br label %77

75:                                               ; preds = %63, %60
  %76 = load ptr, ptr %15, align 8, !tbaa !22
  br label %77

77:                                               ; preds = %75, %68
  %78 = phi ptr [ %74, %68 ], [ %76, %75 ]
  store ptr %78, ptr %22, align 8, !tbaa !22
  %79 = load ptr, ptr %20, align 8, !tbaa !22
  %80 = load ptr, ptr %22, align 8, !tbaa !22
  %81 = load i64, ptr %11, align 8, !tbaa !23
  call void @llvm.memcpy.p0.p0.i64(ptr align 1 %79, ptr align 1 %80, i64 %81, i1 false)
  call void @llvm.lifetime.end.p0(i64 8, ptr %22) #9
  br label %82

82:                                               ; preds = %77
  %83 = load i64, ptr %11, align 8, !tbaa !23
  %84 = load ptr, ptr %20, align 8, !tbaa !22
  %85 = getelementptr i8, ptr %84, i64 %83
  store ptr %85, ptr %20, align 8, !tbaa !22
  %86 = load ptr, ptr %16, align 8, !tbaa !32
  %87 = getelementptr i64, ptr %86, i64 0
  %88 = load i64, ptr %87, align 8, !tbaa !23
  %89 = load ptr, ptr %15, align 8, !tbaa !22
  %90 = getelementptr i8, ptr %89, i64 %88
  store ptr %90, ptr %15, align 8, !tbaa !22
  %91 = load i64, ptr %21, align 8, !tbaa !23
  %92 = add i64 %91, 1
  store i64 %92, ptr %21, align 8, !tbaa !23
  br label %54, !llvm.loop !164

93:                                               ; preds = %54
  store i64 0, ptr %21, align 8, !tbaa !23
  %94 = load ptr, ptr %18, align 8, !tbaa !22
  store ptr %94, ptr %20, align 8, !tbaa !22
  br label %95

95:                                               ; preds = %123, %93
  %96 = load i64, ptr %21, align 8, !tbaa !23
  %97 = load ptr, ptr %10, align 8, !tbaa !32
  %98 = getelementptr i64, ptr %97, i64 0
  %99 = load i64, ptr %98, align 8, !tbaa !23
  %100 = icmp slt i64 %96, %99
  br i1 %100, label %101, label %134

101:                                              ; preds = %95
  call void @llvm.lifetime.start.p0(i64 8, ptr %23) #9
  %102 = load ptr, ptr %14, align 8, !tbaa !32
  %103 = icmp ne ptr %102, null
  br i1 %103, label %104, label %116

104:                                              ; preds = %101
  %105 = load ptr, ptr %14, align 8, !tbaa !32
  %106 = getelementptr i64, ptr %105, i64 0
  %107 = load i64, ptr %106, align 8, !tbaa !23
  %108 = icmp sge i64 %107, 0
  br i1 %108, label %109, label %116

109:                                              ; preds = %104
  %110 = load ptr, ptr %12, align 8, !tbaa !22
  %111 = load ptr, ptr %110, align 8, !tbaa !22
  %112 = load ptr, ptr %14, align 8, !tbaa !32
  %113 = getelementptr i64, ptr %112, i64 0
  %114 = load i64, ptr %113, align 8, !tbaa !23
  %115 = getelementptr i8, ptr %111, i64 %114
  br label %118

116:                                              ; preds = %104, %101
  %117 = load ptr, ptr %12, align 8, !tbaa !22
  br label %118

118:                                              ; preds = %116, %109
  %119 = phi ptr [ %115, %109 ], [ %117, %116 ]
  store ptr %119, ptr %23, align 8, !tbaa !22
  %120 = load ptr, ptr %23, align 8, !tbaa !22
  %121 = load ptr, ptr %20, align 8, !tbaa !22
  %122 = load i64, ptr %11, align 8, !tbaa !23
  call void @llvm.memcpy.p0.p0.i64(ptr align 1 %120, ptr align 1 %121, i64 %122, i1 false)
  call void @llvm.lifetime.end.p0(i64 8, ptr %23) #9
  br label %123

123:                                              ; preds = %118
  %124 = load i64, ptr %11, align 8, !tbaa !23
  %125 = load ptr, ptr %20, align 8, !tbaa !22
  %126 = getelementptr i8, ptr %125, i64 %124
  store ptr %126, ptr %20, align 8, !tbaa !22
  %127 = load ptr, ptr %13, align 8, !tbaa !32
  %128 = getelementptr i64, ptr %127, i64 0
  %129 = load i64, ptr %128, align 8, !tbaa !23
  %130 = load ptr, ptr %12, align 8, !tbaa !22
  %131 = getelementptr i8, ptr %130, i64 %129
  store ptr %131, ptr %12, align 8, !tbaa !22
  %132 = load i64, ptr %21, align 8, !tbaa !23
  %133 = add i64 %132, 1
  store i64 %133, ptr %21, align 8, !tbaa !23
  br label %95, !llvm.loop !165

134:                                              ; preds = %95
  call void @llvm.lifetime.end.p0(i64 8, ptr %21) #9
  call void @llvm.lifetime.end.p0(i64 8, ptr %20) #9
  br label %135

135:                                              ; preds = %134, %51
  ret void
}

; Function Attrs: nounwind uwtable
define internal void @copy_rec(ptr noundef %0, i64 noundef %1, i64 noundef %2, ptr noundef %3, ptr noundef %4, ptr noundef %5, ptr noundef %6, ptr noundef %7, ptr noundef %8, ptr noundef %9) #0 {
  %11 = alloca ptr, align 8
  %12 = alloca i64, align 8
  %13 = alloca i64, align 8
  %14 = alloca ptr, align 8
  %15 = alloca ptr, align 8
  %16 = alloca ptr, align 8
  %17 = alloca ptr, align 8
  %18 = alloca ptr, align 8
  %19 = alloca ptr, align 8
  %20 = alloca ptr, align 8
  %21 = alloca i64, align 8
  %22 = alloca i32, align 4
  %23 = alloca ptr, align 8
  %24 = alloca ptr, align 8
  store ptr %0, ptr %11, align 8, !tbaa !32
  store i64 %1, ptr %12, align 8, !tbaa !23
  store i64 %2, ptr %13, align 8, !tbaa !23
  store ptr %3, ptr %14, align 8, !tbaa !22
  store ptr %4, ptr %15, align 8, !tbaa !32
  store ptr %5, ptr %16, align 8, !tbaa !32
  store ptr %6, ptr %17, align 8, !tbaa !22
  store ptr %7, ptr %18, align 8, !tbaa !32
  store ptr %8, ptr %19, align 8, !tbaa !32
  store ptr %9, ptr %20, align 8, !tbaa !22
  call void @llvm.lifetime.start.p0(i64 8, ptr %21) #9
  %25 = load i64, ptr %12, align 8, !tbaa !23
  %26 = icmp eq i64 %25, 1
  br i1 %26, label %27, label %37

27:                                               ; preds = %10
  %28 = load ptr, ptr %11, align 8, !tbaa !32
  %29 = load i64, ptr %13, align 8, !tbaa !23
  %30 = load ptr, ptr %14, align 8, !tbaa !22
  %31 = load ptr, ptr %15, align 8, !tbaa !32
  %32 = load ptr, ptr %16, align 8, !tbaa !32
  %33 = load ptr, ptr %17, align 8, !tbaa !22
  %34 = load ptr, ptr %18, align 8, !tbaa !32
  %35 = load ptr, ptr %19, align 8, !tbaa !32
  %36 = load ptr, ptr %20, align 8, !tbaa !22
  call void @copy_base(ptr noundef %28, i64 noundef %29, ptr noundef %30, ptr noundef %31, ptr noundef %32, ptr noundef %33, ptr noundef %34, ptr noundef %35, ptr noundef %36)
  store i32 1, ptr %22, align 4
  br label %123

37:                                               ; preds = %10
  store i64 0, ptr %21, align 8, !tbaa !23
  br label %38

38:                                               ; preds = %109, %37
  %39 = load i64, ptr %21, align 8, !tbaa !23
  %40 = load ptr, ptr %11, align 8, !tbaa !32
  %41 = getelementptr i64, ptr %40, i64 0
  %42 = load i64, ptr %41, align 8, !tbaa !23
  %43 = icmp slt i64 %39, %42
  br i1 %43, label %44, label %122

44:                                               ; preds = %38
  call void @llvm.lifetime.start.p0(i64 8, ptr %23) #9
  %45 = load ptr, ptr %16, align 8, !tbaa !32
  %46 = icmp ne ptr %45, null
  br i1 %46, label %47, label %59

47:                                               ; preds = %44
  %48 = load ptr, ptr %16, align 8, !tbaa !32
  %49 = getelementptr i64, ptr %48, i64 0
  %50 = load i64, ptr %49, align 8, !tbaa !23
  %51 = icmp sge i64 %50, 0
  br i1 %51, label %52, label %59

52:                                               ; preds = %47
  %53 = load ptr, ptr %14, align 8, !tbaa !22
  %54 = load ptr, ptr %53, align 8, !tbaa !22
  %55 = load ptr, ptr %16, align 8, !tbaa !32
  %56 = getelementptr i64, ptr %55, i64 0
  %57 = load i64, ptr %56, align 8, !tbaa !23
  %58 = getelementptr i8, ptr %54, i64 %57
  br label %61

59:                                               ; preds = %47, %44
  %60 = load ptr, ptr %14, align 8, !tbaa !22
  br label %61

61:                                               ; preds = %59, %52
  %62 = phi ptr [ %58, %52 ], [ %60, %59 ]
  store ptr %62, ptr %23, align 8, !tbaa !22
  call void @llvm.lifetime.start.p0(i64 8, ptr %24) #9
  %63 = load ptr, ptr %19, align 8, !tbaa !32
  %64 = icmp ne ptr %63, null
  br i1 %64, label %65, label %77

65:                                               ; preds = %61
  %66 = load ptr, ptr %19, align 8, !tbaa !32
  %67 = getelementptr i64, ptr %66, i64 0
  %68 = load i64, ptr %67, align 8, !tbaa !23
  %69 = icmp sge i64 %68, 0
  br i1 %69, label %70, label %77

70:                                               ; preds = %65
  %71 = load ptr, ptr %17, align 8, !tbaa !22
  %72 = load ptr, ptr %71, align 8, !tbaa !22
  %73 = load ptr, ptr %19, align 8, !tbaa !32
  %74 = getelementptr i64, ptr %73, i64 0
  %75 = load i64, ptr %74, align 8, !tbaa !23
  %76 = getelementptr i8, ptr %72, i64 %75
  br label %79

77:                                               ; preds = %65, %61
  %78 = load ptr, ptr %17, align 8, !tbaa !22
  br label %79

79:                                               ; preds = %77, %70
  %80 = phi ptr [ %76, %70 ], [ %78, %77 ]
  store ptr %80, ptr %24, align 8, !tbaa !22
  %81 = load ptr, ptr %11, align 8, !tbaa !32
  %82 = getelementptr i64, ptr %81, i64 1
  %83 = load i64, ptr %12, align 8, !tbaa !23
  %84 = sub i64 %83, 1
  %85 = load i64, ptr %13, align 8, !tbaa !23
  %86 = load ptr, ptr %23, align 8, !tbaa !22
  %87 = load ptr, ptr %15, align 8, !tbaa !32
  %88 = getelementptr i64, ptr %87, i64 1
  %89 = load ptr, ptr %16, align 8, !tbaa !32
  %90 = icmp ne ptr %89, null
  br i1 %90, label %91, label %94

91:                                               ; preds = %79
  %92 = load ptr, ptr %16, align 8, !tbaa !32
  %93 = getelementptr i64, ptr %92, i64 1
  br label %95

94:                                               ; preds = %79
  br label %95

95:                                               ; preds = %94, %91
  %96 = phi ptr [ %93, %91 ], [ null, %94 ]
  %97 = load ptr, ptr %24, align 8, !tbaa !22
  %98 = load ptr, ptr %18, align 8, !tbaa !32
  %99 = getelementptr i64, ptr %98, i64 1
  %100 = load ptr, ptr %19, align 8, !tbaa !32
  %101 = icmp ne ptr %100, null
  br i1 %101, label %102, label %105

102:                                              ; preds = %95
  %103 = load ptr, ptr %19, align 8, !tbaa !32
  %104 = getelementptr i64, ptr %103, i64 1
  br label %106

105:                                              ; preds = %95
  br label %106

106:                                              ; preds = %105, %102
  %107 = phi ptr [ %104, %102 ], [ null, %105 ]
  %108 = load ptr, ptr %20, align 8, !tbaa !22
  call void @copy_rec(ptr noundef %82, i64 noundef %84, i64 noundef %85, ptr noundef %86, ptr noundef %88, ptr noundef %96, ptr noundef %97, ptr noundef %99, ptr noundef %107, ptr noundef %108)
  call void @llvm.lifetime.end.p0(i64 8, ptr %24) #9
  call void @llvm.lifetime.end.p0(i64 8, ptr %23) #9
  br label %109

109:                                              ; preds = %106
  %110 = load ptr, ptr %15, align 8, !tbaa !32
  %111 = getelementptr i64, ptr %110, i64 0
  %112 = load i64, ptr %111, align 8, !tbaa !23
  %113 = load ptr, ptr %14, align 8, !tbaa !22
  %114 = getelementptr i8, ptr %113, i64 %112
  store ptr %114, ptr %14, align 8, !tbaa !22
  %115 = load ptr, ptr %18, align 8, !tbaa !32
  %116 = getelementptr i64, ptr %115, i64 0
  %117 = load i64, ptr %116, align 8, !tbaa !23
  %118 = load ptr, ptr %17, align 8, !tbaa !22
  %119 = getelementptr i8, ptr %118, i64 %117
  store ptr %119, ptr %17, align 8, !tbaa !22
  %120 = load i64, ptr %21, align 8, !tbaa !23
  %121 = add i64 %120, 1
  store i64 %121, ptr %21, align 8, !tbaa !23
  br label %38, !llvm.loop !162

122:                                              ; preds = %38
  store i32 0, ptr %22, align 4
  br label %123

123:                                              ; preds = %122, %27
  call void @llvm.lifetime.end.p0(i64 8, ptr %21) #9
  %124 = load i32, ptr %22, align 4
  switch i32 %124, label %126 [
    i32 0, label %125
    i32 1, label %125
  ]

125:                                              ; preds = %123, %123
  ret void

126:                                              ; preds = %123
  unreachable
}