; Function Attrs: nofree nosync nounwind memory(readwrite, inaccessiblemem: none) uwtable
define internal fastcc void @copy_rec(ptr noundef readonly captures(none) %0, i64 noundef %1, i64 noundef %2, ptr noundef %3, ptr noundef readonly captures(none) %4, ptr noundef %5, ptr noundef %6, ptr noundef readonly captures(none) %7, ptr noundef %8, ptr noundef %9) unnamed_addr #8 {
  %11 = icmp eq i64 %1, 1
  br i1 %11, label %37, label %.preheader

.preheader:                                       ; preds = %10
  %12 = load i64, ptr %0, align 8, !tbaa !124
  %13 = icmp sgt i64 %12, 0
  br i1 %13, label %.lr.ph, label %copy_base.exit

.lr.ph:                                           ; preds = %.preheader
  %.not = icmp eq ptr %5, null
  %.not45 = icmp eq ptr %8, null
  %14 = getelementptr i8, ptr %0, i64 8
  %15 = add i64 %1, -1
  %16 = getelementptr i8, ptr %4, i64 8
  %17 = getelementptr i8, ptr %5, i64 8
  %18 = select i1 %.not, ptr null, ptr %17
  %19 = getelementptr i8, ptr %7, i64 8
  %20 = getelementptr i8, ptr %8, i64 8
  %21 = select i1 %.not45, ptr null, ptr %20
  br i1 %.not, label %.lr.ph.split.us, label %.lr.ph.split

.lr.ph.split.us:                                  ; preds = %.lr.ph, %28
  %.052.us = phi ptr [ %31, %28 ], [ %3, %.lr.ph ]
  %.03851.us = phi ptr [ %33, %28 ], [ %6, %.lr.ph ]
  %.03950.us = phi i64 [ %34, %28 ], [ 0, %.lr.ph ]
  br i1 %.not45, label %28, label %22

22:                                               ; preds = %.lr.ph.split.us
  %23 = load i64, ptr %8, align 8, !tbaa !124
  %24 = icmp sgt i64 %23, -1
  br i1 %24, label %25, label %28

25:                                               ; preds = %22
  %26 = load ptr, ptr %.03851.us, align 8, !tbaa !132
  %27 = getelementptr i8, ptr %26, i64 %23
  br label %28

28:                                               ; preds = %25, %22, %.lr.ph.split.us
  %29 = phi ptr [ %27, %25 ], [ %.03851.us, %22 ], [ %.03851.us, %.lr.ph.split.us ]
  tail call fastcc void @copy_rec(ptr noundef %14, i64 noundef %15, i64 noundef %2, ptr noundef %.052.us, ptr noundef %16, ptr noundef %18, ptr noundef %29, ptr noundef %19, ptr noundef %21, ptr noundef %9)
  %30 = load i64, ptr %4, align 8, !tbaa !124
  %31 = getelementptr i8, ptr %.052.us, i64 %30
  %32 = load i64, ptr %7, align 8, !tbaa !124
  %33 = getelementptr i8, ptr %.03851.us, i64 %32
  %34 = add nuw nsw i64 %.03950.us, 1
  %35 = load i64, ptr %0, align 8, !tbaa !124
  %36 = icmp slt i64 %34, %35
  br i1 %36, label %.lr.ph.split.us, label %copy_base.exit, !llvm.loop !163

37:                                               ; preds = %10
  %38 = icmp eq ptr %9, null
  %39 = load i64, ptr %0, align 8, !tbaa !124
  br i1 %38, label %47, label %.preheader59.i

.preheader59.i:                                   ; preds = %37
  %40 = icmp sgt i64 %39, 0
  br i1 %40, label %.lr.ph.i, label %copy_base.exit

.lr.ph.i:                                         ; preds = %.preheader59.i
  %.not57.i = icmp eq ptr %8, null
  br i1 %.not57.i, label %.lr.ph.split.us.i, label %.lr.ph.split.i

.lr.ph.split.us.i:                                ; preds = %.lr.ph.i, %.lr.ph.split.us.i
  %.04662.us.i = phi ptr [ %43, %.lr.ph.split.us.i ], [ %6, %.lr.ph.i ]
  %.04761.us.i = phi i64 [ %44, %.lr.ph.split.us.i ], [ 0, %.lr.ph.i ]
  %.04860.us.i = phi ptr [ %41, %.lr.ph.split.us.i ], [ %9, %.lr.ph.i ]
  tail call void @llvm.memcpy.p0.p0.i64(ptr align 1 %.04860.us.i, ptr align 1 %.04662.us.i, i64 %2, i1 false)
  %41 = getelementptr i8, ptr %.04860.us.i, i64 %2
  %42 = load i64, ptr %7, align 8, !tbaa !124
  %43 = getelementptr i8, ptr %.04662.us.i, i64 %42
  %44 = add nuw nsw i64 %.04761.us.i, 1
  %45 = load i64, ptr %0, align 8, !tbaa !124
  %46 = icmp slt i64 %44, %45
  br i1 %46, label %.lr.ph.split.us.i, label %.preheader.i, !llvm.loop !164

47:                                               ; preds = %37
  %48 = mul i64 %39, %2
  %49 = getelementptr i8, ptr %3, i64 %48
  %50 = icmp ult ptr %49, %6
  %51 = getelementptr i8, ptr %6, i64 %48
  %52 = icmp ult ptr %51, %3
  %or.cond.i = or i1 %50, %52
  br i1 %or.cond.i, label %53, label %54

53:                                               ; preds = %47
  tail call void @llvm.memcpy.p0.p0.i64(ptr align 1 %3, ptr readonly align 1 %6, i64 %48, i1 false)
  br label %copy_base.exit

54:                                               ; preds = %47
  tail call void @llvm.memmove.p0.p0.i64(ptr align 1 %3, ptr readonly align 1 %6, i64 %48, i1 false)
  br label %copy_base.exit

.preheader.i:                                     ; preds = %68, %.lr.ph.split.us.i
  %55 = phi i64 [ %45, %.lr.ph.split.us.i ], [ %74, %68 ]
  %56 = icmp sgt i64 %55, 0
  br i1 %56, label %.lr.ph66.i, label %copy_base.exit

.lr.ph66.i:                                       ; preds = %.preheader.i
  %.not.i = icmp eq ptr %5, null
  br i1 %.not.i, label %.lr.ph66.split.us.i, label %.lr.ph66.split.i

.lr.ph66.split.us.i:                              ; preds = %.lr.ph66.i, %.lr.ph66.split.us.i
  %.065.us.i = phi ptr [ %59, %.lr.ph66.split.us.i ], [ %3, %.lr.ph66.i ]
  %.164.us.i = phi i64 [ %60, %.lr.ph66.split.us.i ], [ 0, %.lr.ph66.i ]
  %.14963.us.i = phi ptr [ %57, %.lr.ph66.split.us.i ], [ %9, %.lr.ph66.i ]
  tail call void @llvm.memcpy.p0.p0.i64(ptr align 1 %.065.us.i, ptr align 1 %.14963.us.i, i64 %2, i1 false)
  %57 = getelementptr i8, ptr %.14963.us.i, i64 %2
  %58 = load i64, ptr %4, align 8, !tbaa !124
  %59 = getelementptr i8, ptr %.065.us.i, i64 %58
  %60 = add nuw nsw i64 %.164.us.i, 1
  %61 = load i64, ptr %0, align 8, !tbaa !124
  %62 = icmp slt i64 %60, %61
  br i1 %62, label %.lr.ph66.split.us.i, label %copy_base.exit, !llvm.loop !165

.lr.ph.split.i:                                   ; preds = %.lr.ph.i, %68
  %.04662.i = phi ptr [ %72, %68 ], [ %6, %.lr.ph.i ]
  %.04761.i = phi i64 [ %73, %68 ], [ 0, %.lr.ph.i ]
  %.04860.i = phi ptr [ %70, %68 ], [ %9, %.lr.ph.i ]
  %63 = load i64, ptr %8, align 8, !tbaa !124
  %64 = icmp sgt i64 %63, -1
  br i1 %64, label %65, label %68

65:                                               ; preds = %.lr.ph.split.i
  %66 = load ptr, ptr %.04662.i, align 8, !tbaa !132
  %67 = getelementptr i8, ptr %66, i64 %63
  br label %68

68:                                               ; preds = %65, %.lr.ph.split.i
  %69 = phi ptr [ %67, %65 ], [ %.04662.i, %.lr.ph.split.i ]
  tail call void @llvm.memcpy.p0.p0.i64(ptr align 1 %.04860.i, ptr align 1 %69, i64 %2, i1 false)
  %70 = getelementptr i8, ptr %.04860.i, i64 %2
  %71 = load i64, ptr %7, align 8, !tbaa !124
  %72 = getelementptr i8, ptr %.04662.i, i64 %71
  %73 = add nuw nsw i64 %.04761.i, 1
  %74 = load i64, ptr %0, align 8, !tbaa !124
  %75 = icmp slt i64 %73, %74
  br i1 %75, label %.lr.ph.split.i, label %.preheader.i, !llvm.loop !164

.lr.ph66.split.i:                                 ; preds = %.lr.ph66.i, %81
  %.065.i = phi ptr [ %85, %81 ], [ %3, %.lr.ph66.i ]
  %.164.i = phi i64 [ %86, %81 ], [ 0, %.lr.ph66.i ]
  %.14963.i = phi ptr [ %83, %81 ], [ %9, %.lr.ph66.i ]
  %76 = load i64, ptr %5, align 8, !tbaa !124
  %77 = icmp sgt i64 %76, -1
  br i1 %77, label %78, label %81

78:                                               ; preds = %.lr.ph66.split.i
  %79 = load ptr, ptr %.065.i, align 8, !tbaa !132
  %80 = getelementptr i8, ptr %79, i64 %76
  br label %81

81:                                               ; preds = %78, %.lr.ph66.split.i
  %82 = phi ptr [ %80, %78 ], [ %.065.i, %.lr.ph66.split.i ]
  tail call void @llvm.memcpy.p0.p0.i64(ptr align 1 %82, ptr align 1 %.14963.i, i64 %2, i1 false)
  %83 = getelementptr i8, ptr %.14963.i, i64 %2
  %84 = load i64, ptr %4, align 8, !tbaa !124
  %85 = getelementptr i8, ptr %.065.i, i64 %84
  %86 = add nuw nsw i64 %.164.i, 1
  %87 = load i64, ptr %0, align 8, !tbaa !124
  %88 = icmp slt i64 %86, %87
  br i1 %88, label %.lr.ph66.split.i, label %copy_base.exit, !llvm.loop !165

.lr.ph.split:                                     ; preds = %.lr.ph, %102
  %.052 = phi ptr [ %105, %102 ], [ %3, %.lr.ph ]
  %.03851 = phi ptr [ %107, %102 ], [ %6, %.lr.ph ]
  %.03950 = phi i64 [ %108, %102 ], [ 0, %.lr.ph ]
  %89 = load i64, ptr %5, align 8, !tbaa !124
  %90 = icmp sgt i64 %89, -1
  br i1 %90, label %91, label %94

91:                                               ; preds = %.lr.ph.split
  %92 = load ptr, ptr %.052, align 8, !tbaa !132
  %93 = getelementptr i8, ptr %92, i64 %89
  br label %94

94:                                               ; preds = %.lr.ph.split, %91
  %95 = phi ptr [ %93, %91 ], [ %.052, %.lr.ph.split ]
  br i1 %.not45, label %102, label %96

96:                                               ; preds = %94
  %97 = load i64, ptr %8, align 8, !tbaa !124
  %98 = icmp sgt i64 %97, -1
  br i1 %98, label %99, label %102

99:                                               ; preds = %96
  %100 = load ptr, ptr %.03851, align 8, !tbaa !132
  %101 = getelementptr i8, ptr %100, i64 %97
  br label %102

102:                                              ; preds = %94, %96, %99
  %103 = phi ptr [ %101, %99 ], [ %.03851, %96 ], [ %.03851, %94 ]
  tail call fastcc void @copy_rec(ptr noundef %14, i64 noundef %15, i64 noundef %2, ptr noundef %95, ptr noundef %16, ptr noundef %17, ptr noundef %103, ptr noundef %19, ptr noundef %21, ptr noundef %9)
  %104 = load i64, ptr %4, align 8, !tbaa !124
  %105 = getelementptr i8, ptr %.052, i64 %104
  %106 = load i64, ptr %7, align 8, !tbaa !124
  %107 = getelementptr i8, ptr %.03851, i64 %106
  %108 = add nuw nsw i64 %.03950, 1
  %109 = load i64, ptr %0, align 8, !tbaa !124
  %110 = icmp slt i64 %108, %109
  br i1 %110, label %.lr.ph.split, label %copy_base.exit, !llvm.loop !163

copy_base.exit:                                   ; preds = %102, %28, %81, %.lr.ph66.split.us.i, %.preheader, %.preheader.i, %54, %53, %.preheader59.i
  ret void
}